target datalayout = "e-m:e-p270:32:32-p271:32:32-p272:64:64-i64:64-i128:128-f80:128-n8:16:32:64-S128"
target triple = "x86_64-pc-linux-gnu"

%struct._packet_info = type { ptr, ptr, i32, i32, %struct.nstime_t, %struct.nstime_t, %struct.nstime_t, i8, ptr, ptr, ptr, ptr, %struct._address, %struct._address, %struct._address, %struct._address, %struct._address, %struct._address, i32, ptr, i8, [3 x i8], %struct.anon, i32, i32, i32, i32, ptr, i8, ptr, ptr, i16, i16, i32, i32, i16, i32, i32, ptr, ptr, ptr, i8, i8, i16, i16, i16, i32, i16, i16, ptr, ptr, ptr, ptr, ptr, i32, i32 }
%struct.nstime_t = type { i64, i32 }
%struct._address = type { i32, i32, ptr, ptr }
%struct.anon = type { i8, [3 x i8] }

@.str.39 = private unnamed_addr constant [5 x i8] c"KNET\00", align 1

; Function Attrs: null_pointer_is_valid sspstrong uwtable
define internal i32 @dissect_knet_sctp(ptr noundef %0, ptr noundef %1, ptr noundef %2, ptr noundef %3) #0 {
  %5 = alloca ptr, align 8
  %6 = alloca ptr, align 8
  %7 = alloca ptr, align 8
  %8 = alloca ptr, align 8
  store ptr %0, ptr %5, align 8
  store ptr %1, ptr %6, align 8
  store ptr %2, ptr %7, align 8
  store ptr %3, ptr %8, align 8
  %9 = load ptr, ptr %6, align 8
  %10 = getelementptr inbounds nuw %struct._packet_info, ptr %9, i32 0, i32 1
  %11 = load ptr, ptr %10, align 8
  call void @col_clear(ptr noundef %11, i32 noundef 25)
  %12 = load ptr, ptr %6, align 8
  %13 = getelementptr inbounds nuw %struct._packet_info, ptr %12, i32 0, i32 1
  %14 = load ptr, ptr %13, align 8
  call void @col_set_str(ptr noundef %14, i32 noundef 35, ptr noundef @.str.39)
  %15 = load ptr, ptr %5, align 8
  %16 = load ptr, ptr %6, align 8
  %17 = load ptr, ptr %7, align 8
  call void @dissect_knet(ptr noundef %15, ptr noundef %16, ptr noundef %17, i32 noundef 1000)
  %18 = load ptr, ptr %5, align 8
  %19 = call i32 @tvb_captured_length(ptr noundef %18)
  ret i32 %19
}